target datalayout = "e-m:e-p270:32:32-p271:32:32-p272:64:64-i64:64-i128:128-f80:128-n8:16:32:64-S128"
target triple = "x86_64-pc-linux-gnu"

%struct._zend_accel_globals = type { i8, i8, i8, i8, i8, %struct._zend_accel_directives, ptr, ptr, [32 x i8], [32 x i8], i32, i8, i32, i8, i32, i64, i64, %struct._zend_array, i64, ptr, ptr, ptr, ptr, %struct._zend_string, [32768 x i8] }
%struct._zend_accel_directives = type { i64, i64, double, ptr, i64, i8, i8, i8, i8, i8, i8, i8, i8, i8, i8, i8, i64, i64, ptr, ptr, i64, i64, i64, i64, i64, ptr, ptr, ptr, i8, i8, i8, ptr, ptr }
%struct._zend_array = type { %struct._zend_refcounted_h, %union.anon.0, i32, %union.anon.1, i32, i32, i32, i32, i64, ptr }
%struct._zend_refcounted_h = type { i32, %union.anon }
%union.anon = type { i32 }
%union.anon.0 = type { i32 }
%union.anon.1 = type { ptr }
%struct._zend_string = type { %struct._zend_refcounted_h, i64, i64, [1 x i8] }

@accel_globals = external global %struct._zend_accel_globals, align 8

; Function Attrs: nounwind uwtable
define hidden ptr @zend_shared_alloc_get_xlat_entry(ptr noundef %0) #0 {
  %2 = alloca ptr, align 8
  %3 = alloca ptr, align 8
  %4 = alloca i64, align 8
  %5 = alloca ptr, align 8
  %6 = alloca i64, align 8
  %7 = alloca ptr, align 8
  %8 = alloca ptr, align 8
  %9 = alloca ptr, align 8
  %10 = alloca i64, align 8
  store ptr %0, ptr %8, align 8
  %11 = load ptr, ptr %8, align 8
  %12 = ptrtoint ptr %11 to i64
  store i64 %12, ptr %10, align 8
  %13 = load i64, ptr %10, align 8
  store i64 %13, ptr %6, align 8
  %14 = load i64, ptr %6, align 8
  %15 = lshr i64 %14, 3
  %16 = load i64, ptr %6, align 8
  %17 = shl i64 %16, 61
  %18 = or i64 %15, %17
  store i64 %18, ptr %10, align 8
  %19 = load i64, ptr %10, align 8
  store ptr getelementptr inbounds (%struct._zend_accel_globals, ptr @accel_globals, i32 0, i32 17), ptr %3, align 8
  store i64 %19, ptr %4, align 8
  %20 = load ptr, ptr %3, align 8
  %21 = load i64, ptr %4, align 8
  %22 = call ptr @zend_hash_index_find(ptr noundef %20, i64 noundef %21) #10
  store ptr %22, ptr %5, align 8
  %23 = load ptr, ptr %5, align 8
  %24 = icmp ne ptr %23, null
  br i1 %24, label %25, label %31

25:                                               ; preds = %1
  %26 = load ptr, ptr %5, align 8
  %27 = load ptr, ptr %26, align 8
  %28 = icmp ne ptr %27, null
  call void @llvm.assume(i1 %28)
  %29 = load ptr, ptr %5, align 8
  %30 = load ptr, ptr %29, align 8
  store ptr %30, ptr %2, align 8
  br label %32

31:                                               ; preds = %1
  store ptr null, ptr %2, align 8
  br label %32

32:                                               ; preds = %31, %25
  %33 = load ptr, ptr %2, align 8
  store ptr %33, ptr %9, align 8
  %34 = icmp eq ptr %33, null
  br i1 %34, label %35, label %36

35:                                               ; preds = %32
  store ptr null, ptr %7, align 8
  br label %38

36:                                               ; preds = %32
  %37 = load ptr, ptr %9, align 8
  store ptr %37, ptr %7, align 8
  br label %38

38:                                               ; preds = %36, %35
  %39 = load ptr, ptr %7, align 8
  ret ptr %39
}