; Function Attrs: nounwind uwtable
define hidden noundef ptr @zend_shared_alloc_get_xlat_entry(ptr noundef %0) local_unnamed_addr #0 {
  %2 = ptrtoint ptr %0 to i64
  %3 = tail call i64 @llvm.fshl.i64(i64 %2, i64 %2, i64 61)
  %4 = tail call ptr @zend_hash_index_find(ptr noundef nonnull getelementptr inbounds (%struct._zend_accel_globals, ptr @accel_globals, i64 0, i32 17), i64 noundef %3) #20
  %.not = icmp eq ptr %4, null
  br i1 %.not, label %7, label %5

5:                                                ; preds = %1
  %6 = load ptr, ptr %4, align 8, !nonnull !4, !noundef !4
  br label %7

7:                                                ; preds = %1, %5
  %.0 = phi ptr [ %6, %5 ], [ null, %1 ]
  ret ptr %.0
}